; Function Attrs: nounwind uwtable
define nonnull ptr @l___private_Lean_Util_Profile_0__Lean_get__profiler___boxed(ptr noundef %0) local_unnamed_addr #0 {
  %2 = load ptr, ptr @l___private_Lean_Util_Profile_0__Lean_get__profiler___closed__1, align 8, !tbaa !4
  %3 = tail call zeroext i8 @l_Lean_Option_get___at___private_Lean_Util_Profile_0__Lean_get__profiler___spec__1(ptr noundef %0, ptr noundef %2)
  %4 = ptrtoint ptr %0 to i64
  %5 = and i64 %4, 1
  %.not.i = icmp eq i64 %5, 0
  br i1 %.not.i, label %6, label %lean_get_profiler.exit

6:                                                ; preds = %1
  %7 = load i32, ptr %0, align 4, !tbaa !10
  %8 = icmp sgt i32 %7, 1
  br i1 %8, label %9, label %11, !prof !14

9:                                                ; preds = %6
  %10 = add nsw i32 %7, -1
  store i32 %10, ptr %0, align 4, !tbaa !10
  br label %lean_get_profiler.exit

11:                                               ; preds = %6
  %.not.i.i = icmp eq i32 %7, 0
  br i1 %.not.i.i, label %lean_get_profiler.exit, label %12

12:                                               ; preds = %11
  tail call void @lean_dec_ref_cold(ptr noundef nonnull %0) #3
  br label %lean_get_profiler.exit

lean_get_profiler.exit:                           ; preds = %1, %9, %11, %12
  %13 = zext i8 %3 to i64
  %14 = shl nuw nsw i64 %13, 1
  %15 = or disjoint i64 %14, 1
  %16 = inttoptr i64 %15 to ptr
  ret ptr %16
}